target datalayout = "e-m:e-p270:32:32-p271:32:32-p272:64:64-i64:64-i128:128-f80:128-n8:16:32:64-S128"
target triple = "x86_64-pc-linux-gnu"

%struct._cmstransform_struct = type { i32, i32, ptr, ptr, ptr, ptr, ptr, %struct._cmsCACHE, ptr, ptr, ptr, ptr, i32, i32, %struct.cmsCIEXYZ, %struct.cmsCIEXYZ, ptr, i32, double, i32, ptr, ptr, ptr, ptr, ptr, i32, i32 }
%struct._cmsCACHE = type { [16 x i16], [16 x i16] }
%struct.cmsCIEXYZ = type { double, double, double }

; Function Attrs: nounwind uwtable
define internal i32 @PixelSize(i32 noundef %0) #0 {
  %2 = alloca i32, align 4
  %3 = alloca i32, align 4
  %4 = alloca i32, align 4
  store i32 %0, ptr %3, align 4
  %5 = load i32, ptr %3, align 4
  %6 = and i32 %5, 7
  store i32 %6, ptr %4, align 4
  %7 = load i32, ptr %4, align 4
  %8 = icmp eq i32 %7, 0
  br i1 %8, label %9, label %10

9:                                                ; preds = %1
  store i32 8, ptr %2, align 4
  br label %12

10:                                               ; preds = %1
  %11 = load i32, ptr %4, align 4
  store i32 %11, ptr %2, align 4
  br label %12

12:                                               ; preds = %10, %9
  %13 = load i32, ptr %2, align 4
  ret i32 %13
}

; Function Attrs: nounwind uwtable
define internal i32 @IsInkSpace(i32 noundef %0) #0 {
  %2 = alloca i32, align 4
  %3 = alloca i32, align 4
  store i32 %0, ptr %3, align 4
  %4 = load i32, ptr %3, align 4
  %5 = lshr i32 %4, 16
  %6 = and i32 %5, 31
  switch i32 %6, label %8 [
    i32 5, label %7
    i32 6, label %7
    i32 19, label %7
    i32 20, label %7
    i32 21, label %7
    i32 22, label %7
    i32 23, label %7
    i32 24, label %7
    i32 25, label %7
    i32 26, label %7
    i32 27, label %7
    i32 28, label %7
    i32 29, label %7
  ]

7:                                                ; preds = %1, %1, %1, %1, %1, %1, %1, %1, %1, %1, %1, %1, %1
  store i32 1, ptr %2, align 4
  br label %9

8:                                                ; preds = %1
  store i32 0, ptr %2, align 4
  br label %9

9:                                                ; preds = %8, %7
  %10 = load i32, ptr %2, align 4
  ret i32 %10
}

; Function Attrs: nounwind uwtable
define internal ptr @PackDoublesFromFloat(ptr noundef %0, ptr noundef %1, ptr noundef %2, i32 noundef %3) #0 {
  %5 = alloca ptr, align 8
  %6 = alloca ptr, align 8
  %7 = alloca ptr, align 8
  %8 = alloca ptr, align 8
  %9 = alloca i32, align 4
  %10 = alloca i32, align 4
  %11 = alloca i32, align 4
  %12 = alloca i32, align 4
  %13 = alloca i32, align 4
  %14 = alloca i32, align 4
  %15 = alloca i32, align 4
  %16 = alloca i32, align 4
  %17 = alloca double, align 8
  %18 = alloca double, align 8
  %19 = alloca ptr, align 8
  %20 = alloca i32, align 4
  %21 = alloca i32, align 4
  %22 = alloca i32, align 4
  store ptr %0, ptr %6, align 8
  store ptr %1, ptr %7, align 8
  store ptr %2, ptr %8, align 8
  store i32 %3, ptr %9, align 4
  %23 = load ptr, ptr %6, align 8
  %24 = getelementptr inbounds %struct._cmstransform_struct, ptr %23, i32 0, i32 1
  %25 = load i32, ptr %24, align 4
  %26 = lshr i32 %25, 3
  %27 = and i32 %26, 15
  store i32 %27, ptr %10, align 4
  %28 = load ptr, ptr %6, align 8
  %29 = getelementptr inbounds %struct._cmstransform_struct, ptr %28, i32 0, i32 1
  %30 = load i32, ptr %29, align 4
  %31 = lshr i32 %30, 10
  %32 = and i32 %31, 1
  store i32 %32, ptr %11, align 4
  %33 = load ptr, ptr %6, align 8
  %34 = getelementptr inbounds %struct._cmstransform_struct, ptr %33, i32 0, i32 1
  %35 = load i32, ptr %34, align 4
  %36 = lshr i32 %35, 13
  %37 = and i32 %36, 1
  store i32 %37, ptr %12, align 4
  %38 = load ptr, ptr %6, align 8
  %39 = getelementptr inbounds %struct._cmstransform_struct, ptr %38, i32 0, i32 1
  %40 = load i32, ptr %39, align 4
  %41 = lshr i32 %40, 7
  %42 = and i32 %41, 7
  store i32 %42, ptr %13, align 4
  %43 = load ptr, ptr %6, align 8
  %44 = getelementptr inbounds %struct._cmstransform_struct, ptr %43, i32 0, i32 1
  %45 = load i32, ptr %44, align 4
  %46 = lshr i32 %45, 14
  %47 = and i32 %46, 1
  store i32 %47, ptr %14, align 4
  %48 = load ptr, ptr %6, align 8
  %49 = getelementptr inbounds %struct._cmstransform_struct, ptr %48, i32 0, i32 1
  %50 = load i32, ptr %49, align 4
  %51 = lshr i32 %50, 12
  %52 = and i32 %51, 1
  store i32 %52, ptr %15, align 4
  %53 = load i32, ptr %11, align 4
  %54 = load i32, ptr %14, align 4
  %55 = xor i32 %53, %54
  store i32 %55, ptr %16, align 4
  %56 = load ptr, ptr %6, align 8
  %57 = getelementptr inbounds %struct._cmstransform_struct, ptr %56, i32 0, i32 1
  %58 = load i32, ptr %57, align 4
  %59 = call i32 @IsInkSpace(i32 noundef %58)
  %60 = icmp ne i32 %59, 0
  %61 = select i1 %60, double 1.000000e+02, double 1.000000e+00
  store double %61, ptr %17, align 8
  store double 0.000000e+00, ptr %18, align 8
  %62 = load ptr, ptr %8, align 8
  store ptr %62, ptr %19, align 8
  store i32 0, ptr %21, align 4
  %63 = load ptr, ptr %6, align 8
  %64 = getelementptr inbounds %struct._cmstransform_struct, ptr %63, i32 0, i32 1
  %65 = load i32, ptr %64, align 4
  %66 = call i32 @PixelSize(i32 noundef %65)
  %67 = load i32, ptr %9, align 4
  %68 = udiv i32 %67, %66
  store i32 %68, ptr %9, align 4
  %69 = load i32, ptr %16, align 4
  %70 = icmp ne i32 %69, 0
  br i1 %70, label %71, label %73

71:                                               ; preds = %4
  %72 = load i32, ptr %13, align 4
  store i32 %72, ptr %21, align 4
  br label %73

73:                                               ; preds = %71, %4
  store i32 0, ptr %20, align 4
  br label %74

74:                                               ; preds = %126, %73
  %75 = load i32, ptr %20, align 4
  %76 = load i32, ptr %10, align 4
  %77 = icmp ult i32 %75, %76
  br i1 %77, label %78, label %129

78:                                               ; preds = %74
  %79 = load i32, ptr %11, align 4
  %80 = icmp ne i32 %79, 0
  br i1 %80, label %81, label %86

81:                                               ; preds = %78
  %82 = load i32, ptr %10, align 4
  %83 = load i32, ptr %20, align 4
  %84 = sub i32 %82, %83
  %85 = sub i32 %84, 1
  br label %88

86:                                               ; preds = %78
  %87 = load i32, ptr %20, align 4
  br label %88

88:                                               ; preds = %86, %81
  %89 = phi i32 [ %85, %81 ], [ %87, %86 ]
  store i32 %89, ptr %22, align 4
  %90 = load ptr, ptr %7, align 8
  %91 = load i32, ptr %22, align 4
  %92 = zext i32 %91 to i64
  %93 = getelementptr inbounds float, ptr %90, i64 %92
  %94 = load float, ptr %93, align 4
  %95 = fpext float %94 to double
  %96 = load double, ptr %17, align 8
  %97 = fmul double %95, %96
  store double %97, ptr %18, align 8
  %98 = load i32, ptr %12, align 4
  %99 = icmp ne i32 %98, 0
  br i1 %99, label %100, label %104

100:                                              ; preds = %88
  %101 = load double, ptr %17, align 8
  %102 = load double, ptr %18, align 8
  %103 = fsub double %101, %102
  store double %103, ptr %18, align 8
  br label %104

104:                                              ; preds = %100, %88
  %105 = load i32, ptr %15, align 4
  %106 = icmp ne i32 %105, 0
  br i1 %106, label %107, label %117

107:                                              ; preds = %104
  %108 = load double, ptr %18, align 8
  %109 = load ptr, ptr %8, align 8
  %110 = load i32, ptr %20, align 4
  %111 = load i32, ptr %21, align 4
  %112 = add i32 %110, %111
  %113 = load i32, ptr %9, align 4
  %114 = mul i32 %112, %113
  %115 = zext i32 %114 to i64
  %116 = getelementptr inbounds double, ptr %109, i64 %115
  store double %108, ptr %116, align 8
  br label %125

117:                                              ; preds = %104
  %118 = load double, ptr %18, align 8
  %119 = load ptr, ptr %8, align 8
  %120 = load i32, ptr %20, align 4
  %121 = load i32, ptr %21, align 4
  %122 = add i32 %120, %121
  %123 = zext i32 %122 to i64
  %124 = getelementptr inbounds double, ptr %119, i64 %123
  store double %118, ptr %124, align 8
  br label %125

125:                                              ; preds = %117, %107
  br label %126

126:                                              ; preds = %125
  %127 = load i32, ptr %20, align 4
  %128 = add i32 %127, 1
  store i32 %128, ptr %20, align 4
  br label %74, !llvm.loop !32

129:                                              ; preds = %74
  %130 = load i32, ptr %13, align 4
  %131 = icmp eq i32 %130, 0
  br i1 %131, label %132, label %145

132:                                              ; preds = %129
  %133 = load i32, ptr %14, align 4
  %134 = icmp ne i32 %133, 0
  br i1 %134, label %135, label %145

135:                                              ; preds = %132
  %136 = load ptr, ptr %19, align 8
  %137 = getelementptr inbounds double, ptr %136, i64 1
  %138 = load ptr, ptr %19, align 8
  %139 = load i32, ptr %10, align 4
  %140 = sub i32 %139, 1
  %141 = zext i32 %140 to i64
  %142 = mul i64 %141, 8
  call void @llvm.memmove.p0.p0.i64(ptr align 8 %137, ptr align 8 %138, i64 %142, i1 false)
  %143 = load double, ptr %18, align 8
  %144 = load ptr, ptr %19, align 8
  store double %143, ptr %144, align 8
  br label %145

145:                                              ; preds = %135, %132, %129
  %146 = load ptr, ptr %6, align 8
  %147 = getelementptr inbounds %struct._cmstransform_struct, ptr %146, i32 0, i32 1
  %148 = load i32, ptr %147, align 4
  %149 = lshr i32 %148, 12
  %150 = and i32 %149, 1
  %151 = icmp ne i32 %150, 0
  br i1 %151, label %152, label %155

152:                                              ; preds = %145
  %153 = load ptr, ptr %8, align 8
  %154 = getelementptr inbounds i8, ptr %153, i64 8
  store ptr %154, ptr %5, align 8
  br label %163

155:                                              ; preds = %145
  %156 = load ptr, ptr %8, align 8
  %157 = load i32, ptr %10, align 4
  %158 = load i32, ptr %13, align 4
  %159 = add i32 %157, %158
  %160 = zext i32 %159 to i64
  %161 = mul i64 %160, 8
  %162 = getelementptr inbounds i8, ptr %156, i64 %161
  store ptr %162, ptr %5, align 8
  br label %163

163:                                              ; preds = %155, %152
  %164 = load ptr, ptr %5, align 8
  ret ptr %164
}