; Function Attrs: nofree norecurse nosync nounwind memory(argmem: readwrite) uwtable
define internal ptr @PackDoublesFromFloat(ptr nocapture noundef readonly %0, ptr nocapture noundef readonly %1, ptr noundef %2, i32 noundef %3) #4 {
  %5 = getelementptr inbounds i8, ptr %0, i64 4
  %6 = load i32, ptr %5, align 4
  %.fr = freeze i32 %6
  %7 = lshr i32 %.fr, 3
  %8 = and i32 %7, 15
  %9 = lshr i32 %.fr, 10
  %10 = and i32 %9, 1
  %11 = lshr i32 %.fr, 7
  %12 = and i32 %11, 7
  %13 = lshr i32 %.fr, 14
  %14 = and i32 %13, 1
  %15 = lshr i32 %.fr, 16
  %16 = and i32 %15, 31
  %switch.tableidx = add nsw i32 %16, -5
  %17 = icmp ult i32 %switch.tableidx, 25
  br i1 %17, label %switch.lookup, label %IsInkSpace.exit

switch.lookup:                                    ; preds = %4
  %18 = zext nneg i32 %switch.tableidx to i64
  %switch.gep = getelementptr inbounds [25 x double], ptr @switch.table.PackDoublesFromFloat, i64 0, i64 %18
  %switch.load = load double, ptr %switch.gep, align 8
  br label %IsInkSpace.exit

IsInkSpace.exit:                                  ; preds = %4, %switch.lookup
  %19 = phi double [ %switch.load, %switch.lookup ], [ 1.000000e+00, %4 ]
  %20 = and i32 %.fr, 7
  %21 = icmp eq i32 %20, 0
  %..i = select i1 %21, i32 8, i32 %20
  %22 = udiv i32 %3, %..i
  %.not55 = icmp eq i32 %10, %14
  %spec.select = select i1 %.not55, i32 0, i32 %12
  %.not = icmp eq i32 %8, 0
  br i1 %.not, label %._crit_edge, label %.lr.ph

.lr.ph:                                           ; preds = %IsInkSpace.exit
  %.not57 = icmp eq i32 %10, 0
  %23 = and i32 %.fr, 8192
  %.not58 = icmp eq i32 %23, 0
  %24 = and i32 %.fr, 4096
  %.not59 = icmp eq i32 %24, 0
  br i1 %.not59, label %.lr.ph.split.us, label %.lr.ph.split

.lr.ph.split.us:                                  ; preds = %.lr.ph
  %25 = zext nneg i32 %spec.select to i64
  %wide.trip.count131 = zext nneg i32 %8 to i64
  %invariant.gep151 = getelementptr inbounds double, ptr %2, i64 %25
  br i1 %.not57, label %.lr.ph.split.us.split.us, label %.lr.ph.split.us.split

.lr.ph.split.us.split.us:                         ; preds = %.lr.ph.split.us
  br i1 %.not58, label %.lr.ph.split.us.split.us.split.us, label %.lr.ph.split.us.split.us.split

.lr.ph.split.us.split.us.split.us:                ; preds = %.lr.ph.split.us.split.us, %.lr.ph.split.us.split.us.split.us
  %indvars.iv128 = phi i64 [ %indvars.iv.next129, %.lr.ph.split.us.split.us.split.us ], [ 0, %.lr.ph.split.us.split.us ]
  %26 = getelementptr inbounds float, ptr %1, i64 %indvars.iv128
  %27 = load float, ptr %26, align 4
  %28 = fpext float %27 to double
  %29 = fmul double %19, %28
  %gep152 = getelementptr inbounds double, ptr %invariant.gep151, i64 %indvars.iv128
  store double %29, ptr %gep152, align 8
  %indvars.iv.next129 = add nuw nsw i64 %indvars.iv128, 1
  %exitcond132.not = icmp eq i64 %indvars.iv.next129, %wide.trip.count131
  br i1 %exitcond132.not, label %._crit_edge, label %.lr.ph.split.us.split.us.split.us, !llvm.loop !32

.lr.ph.split.us.split.us.split:                   ; preds = %.lr.ph.split.us.split.us, %.lr.ph.split.us.split.us.split
  %indvars.iv123 = phi i64 [ %indvars.iv.next124, %.lr.ph.split.us.split.us.split ], [ 0, %.lr.ph.split.us.split.us ]
  %30 = getelementptr inbounds float, ptr %1, i64 %indvars.iv123
  %31 = load float, ptr %30, align 4
  %32 = fpext float %31 to double
  %33 = fmul double %19, %32
  %34 = fsub double %19, %33
  %gep150 = getelementptr inbounds double, ptr %invariant.gep151, i64 %indvars.iv123
  store double %34, ptr %gep150, align 8
  %indvars.iv.next124 = add nuw nsw i64 %indvars.iv123, 1
  %exitcond127.not = icmp eq i64 %indvars.iv.next124, %wide.trip.count131
  br i1 %exitcond127.not, label %._crit_edge, label %.lr.ph.split.us.split.us.split, !llvm.loop !32

.lr.ph.split.us.split:                            ; preds = %.lr.ph.split.us
  br i1 %.not58, label %.lr.ph.split.us.split.split.us, label %.lr.ph.split.us.split.split

.lr.ph.split.us.split.split.us:                   ; preds = %.lr.ph.split.us.split, %.lr.ph.split.us.split.split.us
  %indvars.iv118 = phi i64 [ %indvars.iv.next119, %.lr.ph.split.us.split.split.us ], [ 0, %.lr.ph.split.us.split ]
  %35 = trunc nuw nsw i64 %indvars.iv118 to i32
  %36 = xor i32 %35, -1
  %37 = add nsw i32 %8, %36
  %38 = zext i32 %37 to i64
  %39 = getelementptr inbounds float, ptr %1, i64 %38
  %40 = load float, ptr %39, align 4
  %41 = fpext float %40 to double
  %42 = fmul double %19, %41
  %gep148 = getelementptr inbounds double, ptr %invariant.gep151, i64 %indvars.iv118
  store double %42, ptr %gep148, align 8
  %indvars.iv.next119 = add nuw nsw i64 %indvars.iv118, 1
  %exitcond122.not = icmp eq i64 %indvars.iv.next119, %wide.trip.count131
  br i1 %exitcond122.not, label %._crit_edge, label %.lr.ph.split.us.split.split.us, !llvm.loop !32

.lr.ph.split.us.split.split:                      ; preds = %.lr.ph.split.us.split, %.lr.ph.split.us.split.split
  %indvars.iv113 = phi i64 [ %indvars.iv.next114, %.lr.ph.split.us.split.split ], [ 0, %.lr.ph.split.us.split ]
  %43 = trunc nuw nsw i64 %indvars.iv113 to i32
  %44 = xor i32 %43, -1
  %45 = add nsw i32 %8, %44
  %46 = zext i32 %45 to i64
  %47 = getelementptr inbounds float, ptr %1, i64 %46
  %48 = load float, ptr %47, align 4
  %49 = fpext float %48 to double
  %50 = fmul double %19, %49
  %51 = fsub double %19, %50
  %gep = getelementptr inbounds double, ptr %invariant.gep151, i64 %indvars.iv113
  store double %51, ptr %gep, align 8
  %indvars.iv.next114 = add nuw nsw i64 %indvars.iv113, 1
  %exitcond117.not = icmp eq i64 %indvars.iv.next114, %wide.trip.count131
  br i1 %exitcond117.not, label %._crit_edge, label %.lr.ph.split.us.split.split, !llvm.loop !32

.lr.ph.split:                                     ; preds = %.lr.ph
  %wide.trip.count111 = zext nneg i32 %8 to i64
  br i1 %.not57, label %.lr.ph.split.split.us, label %.lr.ph.split.split

.lr.ph.split.split.us:                            ; preds = %.lr.ph.split
  br i1 %.not58, label %.lr.ph.split.split.us.split.us, label %.lr.ph.split.split.us.split

.lr.ph.split.split.us.split.us:                   ; preds = %.lr.ph.split.split.us, %.lr.ph.split.split.us.split.us
  %indvars.iv108 = phi i64 [ %indvars.iv.next109, %.lr.ph.split.split.us.split.us ], [ 0, %.lr.ph.split.split.us ]
  %52 = getelementptr inbounds float, ptr %1, i64 %indvars.iv108
  %53 = load float, ptr %52, align 4
  %54 = fpext float %53 to double
  %55 = fmul double %19, %54
  %56 = trunc i64 %indvars.iv108 to i32
  %57 = add i32 %spec.select, %56
  %58 = mul i32 %57, %22
  %59 = zext i32 %58 to i64
  %60 = getelementptr inbounds double, ptr %2, i64 %59
  store double %55, ptr %60, align 8
  %indvars.iv.next109 = add nuw nsw i64 %indvars.iv108, 1
  %exitcond112.not = icmp eq i64 %indvars.iv.next109, %wide.trip.count111
  br i1 %exitcond112.not, label %._crit_edge, label %.lr.ph.split.split.us.split.us, !llvm.loop !32

.lr.ph.split.split.us.split:                      ; preds = %.lr.ph.split.split.us, %.lr.ph.split.split.us.split
  %indvars.iv103 = phi i64 [ %indvars.iv.next104, %.lr.ph.split.split.us.split ], [ 0, %.lr.ph.split.split.us ]
  %61 = getelementptr inbounds float, ptr %1, i64 %indvars.iv103
  %62 = load float, ptr %61, align 4
  %63 = fpext float %62 to double
  %64 = fmul double %19, %63
  %65 = fsub double %19, %64
  %66 = trunc i64 %indvars.iv103 to i32
  %67 = add i32 %spec.select, %66
  %68 = mul i32 %67, %22
  %69 = zext i32 %68 to i64
  %70 = getelementptr inbounds double, ptr %2, i64 %69
  store double %65, ptr %70, align 8
  %indvars.iv.next104 = add nuw nsw i64 %indvars.iv103, 1
  %exitcond107.not = icmp eq i64 %indvars.iv.next104, %wide.trip.count111
  br i1 %exitcond107.not, label %._crit_edge, label %.lr.ph.split.split.us.split, !llvm.loop !32

.lr.ph.split.split:                               ; preds = %.lr.ph.split
  br i1 %.not58, label %.lr.ph.split.split.split.us, label %.lr.ph.split.split.split

.lr.ph.split.split.split.us:                      ; preds = %.lr.ph.split.split, %.lr.ph.split.split.split.us
  %indvars.iv98 = phi i64 [ %indvars.iv.next99, %.lr.ph.split.split.split.us ], [ 0, %.lr.ph.split.split ]
  %71 = trunc nuw nsw i64 %indvars.iv98 to i32
  %72 = xor i32 %71, -1
  %73 = add nsw i32 %8, %72
  %74 = zext i32 %73 to i64
  %75 = getelementptr inbounds float, ptr %1, i64 %74
  %76 = load float, ptr %75, align 4
  %77 = fpext float %76 to double
  %78 = fmul double %19, %77
  %79 = trunc i64 %indvars.iv98 to i32
  %80 = add i32 %spec.select, %79
  %81 = mul i32 %80, %22
  %82 = zext i32 %81 to i64
  %83 = getelementptr inbounds double, ptr %2, i64 %82
  store double %78, ptr %83, align 8
  %indvars.iv.next99 = add nuw nsw i64 %indvars.iv98, 1
  %exitcond102.not = icmp eq i64 %indvars.iv.next99, %wide.trip.count111
  br i1 %exitcond102.not, label %._crit_edge, label %.lr.ph.split.split.split.us, !llvm.loop !32

.lr.ph.split.split.split:                         ; preds = %.lr.ph.split.split, %.lr.ph.split.split.split
  %indvars.iv = phi i64 [ %indvars.iv.next, %.lr.ph.split.split.split ], [ 0, %.lr.ph.split.split ]
  %84 = trunc nuw nsw i64 %indvars.iv to i32
  %85 = xor i32 %84, -1
  %86 = add nsw i32 %8, %85
  %87 = zext i32 %86 to i64
  %88 = getelementptr inbounds float, ptr %1, i64 %87
  %89 = load float, ptr %88, align 4
  %90 = fpext float %89 to double
  %91 = fmul double %19, %90
  %92 = fsub double %19, %91
  %93 = trunc i64 %indvars.iv to i32
  %94 = add i32 %spec.select, %93
  %95 = mul i32 %94, %22
  %96 = zext i32 %95 to i64
  %97 = getelementptr inbounds double, ptr %2, i64 %96
  store double %92, ptr %97, align 8
  %indvars.iv.next = add nuw nsw i64 %indvars.iv, 1
  %exitcond.not = icmp eq i64 %indvars.iv.next, %wide.trip.count111
  br i1 %exitcond.not, label %._crit_edge, label %.lr.ph.split.split.split, !llvm.loop !32

._crit_edge:                                      ; preds = %.lr.ph.split.split.split, %.lr.ph.split.split.split.us, %.lr.ph.split.split.us.split, %.lr.ph.split.split.us.split.us, %.lr.ph.split.us.split.split, %.lr.ph.split.us.split.split.us, %.lr.ph.split.us.split.us.split, %.lr.ph.split.us.split.us.split.us, %IsInkSpace.exit
  %.052.lcssa = phi double [ 0.000000e+00, %IsInkSpace.exit ], [ %29, %.lr.ph.split.us.split.us.split.us ], [ %34, %.lr.ph.split.us.split.us.split ], [ %42, %.lr.ph.split.us.split.split.us ], [ %51, %.lr.ph.split.us.split.split ], [ %55, %.lr.ph.split.split.us.split.us ], [ %65, %.lr.ph.split.split.us.split ], [ %78, %.lr.ph.split.split.split.us ], [ %92, %.lr.ph.split.split.split ]
  %98 = icmp eq i32 %12, 0
  %99 = icmp ne i32 %14, 0
  %or.cond = and i1 %98, %99
  br i1 %or.cond, label %100, label %105

100:                                              ; preds = %._crit_edge
  %101 = getelementptr inbounds i8, ptr %2, i64 8
  %102 = add nsw i32 %8, -1
  %103 = zext i32 %102 to i64
  %104 = shl nuw nsw i64 %103, 3
  tail call void @llvm.memmove.p0.p0.i64(ptr nonnull align 8 %101, ptr align 8 %2, i64 %104, i1 false)
  store double %.052.lcssa, ptr %2, align 8
  br label %105

105:                                              ; preds = %100, %._crit_edge
  %106 = load i32, ptr %5, align 4
  %107 = and i32 %106, 4096
  %.not56 = icmp eq i32 %107, 0
  %108 = add nuw nsw i32 %8, %12
  %109 = shl nuw nsw i32 %108, 3
  %narrow = select i1 %.not56, i32 %109, i32 8
  %.0.v = zext nneg i32 %narrow to i64
  %.0 = getelementptr inbounds i8, ptr %2, i64 %.0.v
  ret ptr %.0
}